target datalayout = "e-m:e-p270:32:32-p271:32:32-p272:64:64-i64:64-i128:128-f80:128-n8:16:32:64-S128"
target triple = "x86_64-pc-linux-gnu"

%class.QString = type { %struct.QArrayDataPointer }
%struct.QArrayDataPointer = type { ptr, ptr, i64 }
%class.QVariant = type { %"struct.QVariant::Private" }
%"struct.QVariant::Private" = type { %union.anon, i64 }
%union.anon = type { ptr, [16 x i8] }
%class.SequenceDialog = type <{ %class.WiresharkDialog.base, [3 x i8], ptr, ptr, ptr, i32, i32, double, i32, i8, [3 x i8], ptr, ptr, ptr, %class.QMenu, ptr, ptr, ptr, ptr, %class.QPointer, i8, [7 x i8] }>
%class.WiresharkDialog.base = type <{ %class.GeometryStateDialog, ptr, i8, [7 x i8], %class.QString, %class.QList, i32, i8 }>
%class.GeometryStateDialog = type { %class.QDialog, %class.QString, ptr }
%class.QDialog = type { %class.QWidget }
%class.QWidget = type { %class.QObject, %class.QPaintDevice.base, ptr }
%class.QObject = type { ptr, %class.QScopedPointer }
%class.QScopedPointer = type { ptr }
%class.QPaintDevice.base = type <{ ptr, i16 }>
%class.QList = type { %struct.QArrayDataPointer.0 }
%struct.QArrayDataPointer.0 = type { ptr, ptr, i64 }
%class.QMenu = type { %class.QWidget }
%class.QPointer = type { %class.QWeakPointer }
%class.QWeakPointer = type { ptr, ptr }
%class.Ui_SequenceDialog = type { ptr, ptr, ptr, ptr, ptr, ptr, ptr, ptr, ptr, ptr, ptr, ptr, ptr, ptr, ptr, ptr, ptr, ptr, ptr, ptr, ptr, ptr, ptr, ptr, ptr, ptr, ptr, ptr, ptr, ptr, ptr, ptr, ptr, ptr, ptr, ptr, ptr, ptr }
%struct._seq_analysis_info = type { ptr, i8, i32, ptr, ptr, [40 x %struct._address], [40 x i8], i32 }
%struct._address = type { i32, i32, ptr, ptr }
%class.SequenceInfo = type <{ ptr, i32, [4 x i8] }>
%class.QMetaType = type { ptr }

; Function Attrs: mustprogress nounwind null_pointer_is_valid sspstrong uwtable
define linkonce_odr void @_ZN9QMetaTypeC2EPKN9QtPrivate18QMetaTypeInterfaceE(ptr noundef align 8 dereferenceable_or_null(8) %0, ptr noundef %1) unnamed_addr #3 comdat align 2 {
  %3 = alloca ptr, align 8
  %4 = alloca ptr, align 8
  store ptr %0, ptr %3, align 8
  store ptr %1, ptr %4, align 8
  %5 = load ptr, ptr %3, align 8
  %6 = getelementptr inbounds nuw %class.QMetaType, ptr %5, i32 0, i32 0
  %7 = load ptr, ptr %4, align 8
  store ptr %7, ptr %6, align 8
  ret void
}

; Function Attrs: inlinehint mustprogress null_pointer_is_valid sspstrong uwtable
define linkonce_odr ptr @_ZNK8QVariant7Private4typeEv(ptr noundef align 8 dereferenceable_or_null(32) %0) #5 comdat align 2 {
  %2 = alloca %class.QMetaType, align 8
  %3 = alloca ptr, align 8
  store ptr %0, ptr %3, align 8
  %4 = load ptr, ptr %3, align 8
  %5 = getelementptr inbounds nuw %"struct.QVariant::Private", ptr %4, i32 0, i32 1
  %6 = load i64, ptr %5, align 8
  %7 = lshr i64 %6, 2
  %8 = shl i64 %7, 2
  %9 = inttoptr i64 %8 to ptr
  call void @_ZN9QMetaTypeC2EPKN9QtPrivate18QMetaTypeInterfaceE(ptr noundef align 8 dereferenceable_or_null(8) %2, ptr noundef %9)
  %10 = getelementptr inbounds nuw %class.QMetaType, ptr %2, i32 0, i32 0
  %11 = load ptr, ptr %10, align 8
  ret ptr %11
}

; Function Attrs: inlinehint mustprogress null_pointer_is_valid sspstrong uwtable
define linkonce_odr noundef zeroext i1 @_ZNK8QVariant7isValidEv(ptr noundef align 8 dereferenceable_or_null(32) %0) #5 comdat align 2 {
  %2 = alloca ptr, align 8
  %3 = alloca %class.QMetaType, align 8
  store ptr %0, ptr %2, align 8
  %4 = load ptr, ptr %2, align 8
  call void @llvm.lifetime.start.p0(i64 8, ptr %3) #25
  %5 = getelementptr inbounds nuw %class.QVariant, ptr %4, i32 0, i32 0
  %6 = call ptr @_ZNK8QVariant7Private4typeEv(ptr noundef align 8 dereferenceable_or_null(32) %5)
  %7 = getelementptr inbounds nuw %class.QMetaType, ptr %3, i32 0, i32 0
  store ptr %6, ptr %7, align 8
  %8 = call noundef zeroext i1 @_ZNK9QMetaType7isValidEv(ptr noundef align 8 dereferenceable_or_null(8) %3)
  call void @llvm.lifetime.end.p0(i64 8, ptr %3) #25
  ret i1 %8
}

; Function Attrs: mustprogress nounwind null_pointer_is_valid sspstrong uwtable
define linkonce_odr noundef ptr @_ZN12SequenceInfo6sainfoEv(ptr noundef align 8 dereferenceable_or_null(12) %0) #3 comdat align 2 {
  %2 = alloca ptr, align 8
  store ptr %0, ptr %2, align 8
  %3 = load ptr, ptr %2, align 8
  %4 = getelementptr inbounds nuw %class.SequenceInfo, ptr %3, i32 0, i32 0
  %5 = load ptr, ptr %4, align 8
  ret ptr %5
}

; Function Attrs: mustprogress null_pointer_is_valid sspstrong uwtable
define void @_ZN14SequenceDialog14addressChangedEi(ptr noundef align 8 dereferenceable_or_null(305) %0, i32 noundef %1) #0 align 2 personality ptr @__gxx_personality_v0 {
  %3 = alloca ptr, align 8
  %4 = alloca i32, align 4
  %5 = alloca %class.QVariant, align 8
  %6 = alloca ptr, align 8
  %7 = alloca i32, align 4
  store ptr %0, ptr %3, align 8
  store i32 %1, ptr %4, align 4
  %8 = load ptr, ptr %3, align 8
  %9 = getelementptr inbounds nuw %class.SequenceDialog, ptr %8, i32 0, i32 4
  %10 = load ptr, ptr %9, align 8
  %11 = call noundef ptr @_ZN12SequenceInfo6sainfoEv(ptr noundef align 8 dereferenceable_or_null(12) %10)
  %12 = icmp ne ptr %11, null
  br i1 %12, label %14, label %13

13:                                               ; preds = %2
  br label %36

14:                                               ; preds = %2
  call void @llvm.lifetime.start.p0(i64 32, ptr %5) #25
  %15 = getelementptr inbounds nuw %class.SequenceDialog, ptr %8, i32 0, i32 2
  %16 = load ptr, ptr %15, align 8
  %17 = getelementptr inbounds nuw %class.Ui_SequenceDialog, ptr %16, i32 0, i32 36
  %18 = load ptr, ptr %17, align 8
  call void @_ZNK9QComboBox11currentDataEi(ptr dead_on_unwind writable sret(%class.QVariant) align 8 %5, ptr noundef align 8 dereferenceable_or_null(40) %18, i32 noundef 256)
  %19 = invoke noundef zeroext i1 @_ZNK8QVariant7isValidEv(ptr noundef align 8 dereferenceable_or_null(32) %5)
          to label %20 unwind label %31

20:                                               ; preds = %14
  br i1 %19, label %21, label %35

21:                                               ; preds = %20
  %22 = invoke noundef zeroext i1 @_ZNK8QVariant6toBoolEv(ptr noundef align 8 dereferenceable_or_null(32) %5)
          to label %23 unwind label %31

23:                                               ; preds = %21
  %24 = getelementptr inbounds nuw %class.SequenceDialog, ptr %8, i32 0, i32 4
  %25 = load ptr, ptr %24, align 8
  %26 = invoke noundef ptr @_ZN12SequenceInfo6sainfoEv(ptr noundef align 8 dereferenceable_or_null(12) %25)
          to label %27 unwind label %31

27:                                               ; preds = %23
  %28 = getelementptr inbounds nuw %struct._seq_analysis_info, ptr %26, i32 0, i32 1
  %29 = zext i1 %22 to i8
  store i8 %29, ptr %28, align 8
  invoke void @_ZN14SequenceDialog11fillDiagramEv(ptr noundef align 8 dereferenceable_or_null(305) %8)
          to label %30 unwind label %31

30:                                               ; preds = %27
  br label %35

31:                                               ; preds = %27, %23, %21, %14
  %32 = landingpad { ptr, i32 }
          cleanup
  %33 = extractvalue { ptr, i32 } %32, 0
  store ptr %33, ptr %6, align 8
  %34 = extractvalue { ptr, i32 } %32, 1
  store i32 %34, ptr %7, align 4
  call void @_ZN8QVariantD1Ev(ptr noundef align 8 dereferenceable_or_null(32) %5) #25
  call void @llvm.lifetime.end.p0(i64 32, ptr %5) #25
  br label %37

35:                                               ; preds = %30, %20
  call void @_ZN8QVariantD1Ev(ptr noundef align 8 dereferenceable_or_null(32) %5) #25
  call void @llvm.lifetime.end.p0(i64 32, ptr %5) #25
  br label %36

36:                                               ; preds = %35, %13
  ret void

37:                                               ; preds = %31
  %38 = load ptr, ptr %6, align 8
  %39 = load i32, ptr %7, align 4
  %40 = insertvalue { ptr, i32 } poison, ptr %38, 0
  %41 = insertvalue { ptr, i32 } %40, i32 %39, 1
  resume { ptr, i32 } %41
}