; Function Attrs: mustprogress null_pointer_is_valid sspstrong uwtable
define void @_ZN14SequenceDialog14addressChangedEi(ptr noundef align 8 captures(none) dereferenceable_or_null(305) %0, i32 %1) #0 align 2 personality ptr @__gxx_personality_v0 {
  %3 = alloca %class.QMetaType, align 8
  %4 = alloca %class.QVariant, align 8
  %5 = getelementptr inbounds nuw i8, ptr %0, i64 160
  %6 = load ptr, ptr %5, align 8
  %7 = load ptr, ptr %6, align 8
  %.not = icmp eq ptr %7, null
  br i1 %.not, label %29, label %8

8:                                                ; preds = %2
  call void @llvm.lifetime.start.p0(i64 32, ptr nonnull %4) #25
  %9 = getelementptr inbounds nuw i8, ptr %0, i64 144
  %10 = load ptr, ptr %9, align 8
  %11 = getelementptr inbounds nuw i8, ptr %10, i64 288
  %12 = load ptr, ptr %11, align 8
  call void @_ZNK9QComboBox11currentDataEi(ptr dead_on_unwind nonnull writable sret(%class.QVariant) align 8 %4, ptr noundef align 8 dereferenceable_or_null(40) %12, i32 noundef 256)
  call void @llvm.lifetime.start.p0(i64 8, ptr nonnull %3) #25
  %13 = getelementptr inbounds nuw i8, ptr %4, i64 24
  %14 = load i64, ptr %13, align 8
  %15 = and i64 %14, -4
  %16 = inttoptr i64 %15 to ptr
  store ptr %16, ptr %3, align 8
  %17 = invoke noundef zeroext i1 @_ZNK9QMetaType7isValidEv(ptr noundef nonnull align 8 dereferenceable_or_null(8) %3)
          to label %18 unwind label %26

18:                                               ; preds = %8
  call void @llvm.lifetime.end.p0(i64 8, ptr nonnull %3) #25
  br i1 %17, label %19, label %28

19:                                               ; preds = %18
  %20 = invoke noundef zeroext i1 @_ZNK8QVariant6toBoolEv(ptr noundef nonnull align 8 dereferenceable_or_null(32) %4)
          to label %21 unwind label %26

21:                                               ; preds = %19
  %22 = load ptr, ptr %5, align 8
  %23 = load ptr, ptr %22, align 8
  %24 = getelementptr inbounds nuw i8, ptr %23, i64 8
  %25 = zext i1 %20 to i8
  store i8 %25, ptr %24, align 8
  invoke void @_ZN14SequenceDialog11fillDiagramEv(ptr noundef align 8 dereferenceable_or_null(305) %0)
          to label %28 unwind label %26

26:                                               ; preds = %8, %21, %19
  %27 = landingpad { ptr, i32 }
          cleanup
  call void @_ZN8QVariantD1Ev(ptr noundef nonnull align 8 dereferenceable_or_null(32) %4) #25
  call void @llvm.lifetime.end.p0(i64 32, ptr nonnull %4) #25
  resume { ptr, i32 } %27

28:                                               ; preds = %21, %18
  call void @_ZN8QVariantD1Ev(ptr noundef nonnull align 8 dereferenceable_or_null(32) %4) #25
  call void @llvm.lifetime.end.p0(i64 32, ptr nonnull %4) #25
  br label %29

29:                                               ; preds = %2, %28
  ret void
}